; Function Attrs: null_pointer_is_valid sspstrong uwtable
define range(i32 -1, 1) i32 @tvb_strncaseeql(ptr noundef %0, i32 noundef %1, ptr noundef %2, i64 noundef %3) local_unnamed_addr #0 {
  %5 = trunc i64 %3 to i32
  %6 = icmp sgt i32 %1, -1
  br i1 %6, label %7, label %10

7:                                                ; preds = %4
  %8 = getelementptr inbounds nuw i8, ptr %0, i64 40
  %9 = load i32, ptr %8, align 8
  %.not32.i.i.i = icmp ugt i32 %1, %9
  br i1 %.not32.i.i.i, label %ensure_contiguous_no_exception.exit.thread, label %16, !prof !11

10:                                               ; preds = %4
  %11 = sub i32 0, %1
  %12 = getelementptr inbounds nuw i8, ptr %0, i64 40
  %13 = load i32, ptr %12, align 8
  %.not.i.i.i = icmp ult i32 %13, %11
  br i1 %.not.i.i.i, label %ensure_contiguous_no_exception.exit.thread, label %14, !prof !11

14:                                               ; preds = %10
  %15 = add i32 %13, %1
  br label %16

16:                                               ; preds = %14, %7
  %17 = phi i32 [ %13, %14 ], [ %9, %7 ]
  %18 = phi i32 [ %15, %14 ], [ %1, %7 ]
  %19 = icmp slt i32 %5, -1
  br i1 %19, label %ensure_contiguous_no_exception.exit.thread, label %20

20:                                               ; preds = %16
  %21 = icmp eq i32 %5, -1
  %22 = sub i32 %17, %18
  %spec.select.i = select i1 %21, i32 %22, i32 %5
  %23 = add i32 %spec.select.i, %18
  %24 = icmp ult i32 %23, %18
  br i1 %24, label %ensure_contiguous_no_exception.exit.thread, label %25

25:                                               ; preds = %20
  %.not.i27.i.i = icmp ugt i32 %23, %17
  %26 = icmp eq i32 %5, 0
  %or.cond = or i1 %26, %.not.i27.i.i
  br i1 %or.cond, label %ensure_contiguous_no_exception.exit.thread, label %27, !prof !15

27:                                               ; preds = %25
  %28 = getelementptr inbounds nuw i8, ptr %0, i64 32
  %29 = load ptr, ptr %28, align 8
  %.not17.i = icmp eq ptr %29, null
  br i1 %.not17.i, label %33, label %30

30:                                               ; preds = %27
  %31 = zext i32 %18 to i64
  %32 = getelementptr i8, ptr %29, i64 %31
  br label %ensure_contiguous_no_exception.exit

33:                                               ; preds = %27
  %34 = getelementptr inbounds nuw i8, ptr %0, i64 8
  %35 = load ptr, ptr %34, align 8
  %36 = getelementptr inbounds nuw i8, ptr %35, i64 24
  %37 = load ptr, ptr %36, align 8
  %.not18.i = icmp eq ptr %37, null
  br i1 %.not18.i, label %40, label %38

38:                                               ; preds = %33
  %39 = tail call ptr %37(ptr noundef %0, i32 noundef %18, i32 noundef %spec.select.i)
  br label %ensure_contiguous_no_exception.exit

40:                                               ; preds = %33
  tail call void (ptr, ...) @proto_report_dissector_bug(ptr noundef nonnull @.str.9, ptr noundef nonnull @.str.1, i32 noundef 869) #18
  unreachable

ensure_contiguous_no_exception.exit:              ; preds = %30, %38
  %.0.i = phi ptr [ %32, %30 ], [ %39, %38 ]
  %.not = icmp eq ptr %.0.i, null
  br i1 %.not, label %ensure_contiguous_no_exception.exit.thread, label %41

41:                                               ; preds = %ensure_contiguous_no_exception.exit
  %42 = tail call i32 @g_ascii_strncasecmp(ptr noundef nonnull %.0.i, ptr noundef %2, i64 noundef %3)
  %43 = icmp ne i32 %42, 0
  %44 = sext i1 %43 to i32
  br label %ensure_contiguous_no_exception.exit.thread

ensure_contiguous_no_exception.exit.thread:       ; preds = %25, %10, %7, %16, %20, %ensure_contiguous_no_exception.exit, %41
  %.0 = phi i32 [ %44, %41 ], [ -1, %ensure_contiguous_no_exception.exit ], [ -1, %20 ], [ -1, %16 ], [ -1, %7 ], [ -1, %10 ], [ -1, %25 ]
  ret i32 %.0
}